target datalayout = "e-m:e-p270:32:32-p271:32:32-p272:64:64-i64:64-i128:128-f80:128-n8:16:32:64-S128"
target triple = "x86_64-pc-linux-gnu"

%"class.duckdb::shared_ptr" = type { %"class.std::shared_ptr" }
%"class.std::shared_ptr" = type { %"class.std::__shared_ptr" }
%"class.std::__shared_ptr" = type { ptr, %"class.std::__shared_count" }
%"class.std::__shared_count" = type { ptr }
%"class.duckdb::BufferedData" = type { ptr, i32, %"class.duckdb::weak_ptr", i64, %"class.std::mutex" }
%"class.duckdb::weak_ptr" = type { %"class.std::weak_ptr" }
%"class.std::weak_ptr" = type { %"class.std::__weak_ptr" }
%"class.std::__weak_ptr" = type { ptr, %"class.std::__weak_count" }
%"class.std::__weak_count" = type { ptr }
%"class.std::mutex" = type { %"class.std::__mutex_base" }
%"class.std::__mutex_base" = type { %union.pthread_mutex_t }
%union.pthread_mutex_t = type { %struct.__pthread_mutex_s }
%struct.__pthread_mutex_s = type { i32, i32, i32, i32, i32, i16, i16, %struct.__pthread_internal_list }
%struct.__pthread_internal_list = type { ptr, ptr }
%"struct.duckdb::ClientConfig" = type { %"class.std::__cxx11::basic_string", i8, i8, i8, %"class.std::__cxx11::basic_string", %"class.std::unordered_set", i8, ptr, i8, i8, i32, i8, i64, i8, i8, i8, i8, i8, i8, i8, i8, i8, i8, i8, i8, i8, i64, i64, i64, i64, i64, i64, i64, i64, ptr, i8, i64, i64, i64, i64, i8, i8, i8, i8, i8, %"class.std::unordered_map", %"class.std::unordered_map", %"class.std::function", i8, %"class.std::__cxx11::basic_string" }
%"class.std::unordered_set" = type { %"class.std::_Hashtable" }
%"class.std::_Hashtable" = type { ptr, i64, %"struct.std::__detail::_Hash_node_base", i64, %"struct.std::__detail::_Prime_rehash_policy", ptr }
%"struct.std::__detail::_Hash_node_base" = type { ptr }
%"struct.std::__detail::_Prime_rehash_policy" = type { float, i64 }
%"class.std::unordered_map" = type { %"class.std::_Hashtable.20" }
%"class.std::_Hashtable.20" = type { ptr, i64, %"struct.std::__detail::_Hash_node_base", i64, %"struct.std::__detail::_Prime_rehash_policy", ptr }
%"class.std::function" = type { %"class.std::_Function_base", ptr }
%"class.std::_Function_base" = type { %"union.std::_Any_data", ptr }
%"union.std::_Any_data" = type { %"union.std::_Nocopy_types" }
%"union.std::_Nocopy_types" = type { { i64, i64 } }
%"class.std::__cxx11::basic_string" = type { %"struct.std::__cxx11::basic_string<char>::_Alloc_hider", i64, %union.anon }
%"struct.std::__cxx11::basic_string<char>::_Alloc_hider" = type { ptr }
%union.anon = type { i64, [8 x i8] }

@_ZTVN6duckdb12BufferedDataE = unnamed_addr constant { [7 x ptr] } { [7 x ptr] [ptr null, ptr @_ZTIN6duckdb12BufferedDataE, ptr @_ZN6duckdb12BufferedDataD1Ev, ptr @_ZN6duckdb12BufferedDataD0Ev, ptr @__cxa_pure_virtual, ptr @__cxa_pure_virtual, ptr @__cxa_pure_virtual] }, align 8

; Function Attrs: mustprogress nounwind uwtable
define linkonce_odr void @_ZNSt12__weak_countILN9__gnu_cxx12_Lock_policyE2EEC2EOS2_(ptr noundef nonnull align 8 dereferenceable(8) %0, ptr noundef nonnull align 8 dereferenceable(8) %1) unnamed_addr #1 comdat align 2 {
  %3 = alloca ptr, align 8
  %4 = alloca ptr, align 8
  store ptr %0, ptr %3, align 8, !tbaa !223
  store ptr %1, ptr %4, align 8, !tbaa !223
  %5 = load ptr, ptr %3, align 8
  %6 = getelementptr inbounds nuw %"class.std::__weak_count", ptr %5, i32 0, i32 0
  %7 = load ptr, ptr %4, align 8, !tbaa !223
  %8 = getelementptr inbounds nuw %"class.std::__weak_count", ptr %7, i32 0, i32 0
  %9 = load ptr, ptr %8, align 8, !tbaa !225
  store ptr %9, ptr %6, align 8, !tbaa !225
  %10 = load ptr, ptr %4, align 8, !tbaa !223
  %11 = getelementptr inbounds nuw %"class.std::__weak_count", ptr %10, i32 0, i32 0
  store ptr null, ptr %11, align 8, !tbaa !225
  ret void
}

; Function Attrs: mustprogress nounwind uwtable
define linkonce_odr void @_ZNSt10__weak_ptrIN6duckdb13ClientContextELN9__gnu_cxx12_Lock_policyE2EEC2EOS4_(ptr noundef nonnull align 8 dereferenceable(16) %0, ptr noundef nonnull align 8 dereferenceable(16) %1) unnamed_addr #1 comdat align 2 {
  %3 = alloca ptr, align 8
  %4 = alloca ptr, align 8
  store ptr %0, ptr %3, align 8, !tbaa !281
  store ptr %1, ptr %4, align 8, !tbaa !281
  %5 = load ptr, ptr %3, align 8
  %6 = getelementptr inbounds nuw %"class.std::__weak_ptr", ptr %5, i32 0, i32 0
  %7 = load ptr, ptr %4, align 8, !tbaa !281
  %8 = getelementptr inbounds nuw %"class.std::__weak_ptr", ptr %7, i32 0, i32 0
  %9 = load ptr, ptr %8, align 8, !tbaa !406
  store ptr %9, ptr %6, align 8, !tbaa !406
  %10 = getelementptr inbounds nuw %"class.std::__weak_ptr", ptr %5, i32 0, i32 1
  %11 = load ptr, ptr %4, align 8, !tbaa !281
  %12 = getelementptr inbounds nuw %"class.std::__weak_ptr", ptr %11, i32 0, i32 1
  call void @_ZNSt12__weak_countILN9__gnu_cxx12_Lock_policyE2EEC2EOS2_(ptr noundef nonnull align 8 dereferenceable(8) %10, ptr noundef nonnull align 8 dereferenceable(8) %12) #19
  %13 = load ptr, ptr %4, align 8, !tbaa !281
  %14 = getelementptr inbounds nuw %"class.std::__weak_ptr", ptr %13, i32 0, i32 0
  store ptr null, ptr %14, align 8, !tbaa !406
  ret void
}

; Function Attrs: mustprogress nounwind uwtable
define linkonce_odr void @_ZNSt12__mutex_baseC2Ev(ptr noundef nonnull align 8 dereferenceable(40) %0) unnamed_addr #1 comdat align 2 {
  %2 = alloca ptr, align 8
  store ptr %0, ptr %2, align 8, !tbaa !199
  %3 = load ptr, ptr %2, align 8
  %4 = getelementptr inbounds nuw %"class.std::__mutex_base", ptr %3, i32 0, i32 0
  call void @llvm.memset.p0.i64(ptr align 8 %4, i8 0, i64 40, i1 false)
  %5 = getelementptr inbounds nuw %struct.__pthread_mutex_s, ptr %4, i32 0, i32 4
  store i32 0, ptr %5, align 8, !tbaa !201
  ret void
}

; Function Attrs: mustprogress nounwind uwtable
define linkonce_odr void @_ZNSt8weak_ptrIN6duckdb13ClientContextEEC2EOS2_(ptr noundef nonnull align 8 dereferenceable(16) %0, ptr noundef nonnull align 8 dereferenceable(16) %1) unnamed_addr #1 comdat align 2 {
  %3 = alloca ptr, align 8
  %4 = alloca ptr, align 8
  store ptr %0, ptr %3, align 8, !tbaa !404
  store ptr %1, ptr %4, align 8, !tbaa !404
  %5 = load ptr, ptr %3, align 8
  %6 = load ptr, ptr %4, align 8, !tbaa !404
  call void @_ZNSt10__weak_ptrIN6duckdb13ClientContextELN9__gnu_cxx12_Lock_policyE2EEC2EOS4_(ptr noundef nonnull align 8 dereferenceable(16) %5, ptr noundef nonnull align 8 dereferenceable(16) %6) #19
  ret void
}

; Function Attrs: mustprogress nounwind uwtable
define linkonce_odr void @_ZNSt5mutexC2Ev(ptr noundef nonnull align 8 dereferenceable(40) %0) unnamed_addr #1 comdat align 2 {
  %2 = alloca ptr, align 8
  store ptr %0, ptr %2, align 8, !tbaa !48
  %3 = load ptr, ptr %2, align 8
  call void @_ZNSt12__mutex_baseC2Ev(ptr noundef nonnull align 8 dereferenceable(40) %3) #19
  ret void
}

; Function Attrs: mustprogress nounwind uwtable
define linkonce_odr void @_ZN6duckdb8weak_ptrINS_13ClientContextELb1EEC2EOS2_(ptr noundef nonnull align 8 dereferenceable(16) %0, ptr noundef nonnull align 8 dereferenceable(16) %1) unnamed_addr #1 comdat align 2 {
  %3 = alloca ptr, align 8
  %4 = alloca ptr, align 8
  store ptr %0, ptr %3, align 8, !tbaa !10
  store ptr %1, ptr %4, align 8, !tbaa !10
  %5 = load ptr, ptr %3, align 8
  %6 = getelementptr inbounds nuw %"class.duckdb::weak_ptr", ptr %5, i32 0, i32 0
  %7 = load ptr, ptr %4, align 8, !tbaa !10
  %8 = getelementptr inbounds nuw %"class.duckdb::weak_ptr", ptr %7, i32 0, i32 0
  call void @_ZNSt8weak_ptrIN6duckdb13ClientContextEEC2EOS2_(ptr noundef nonnull align 8 dereferenceable(16) %6, ptr noundef nonnull align 8 dereferenceable(16) %8) #19
  ret void
}

; Function Attrs: mustprogress uwtable
define void @_ZN6duckdb12BufferedDataC2ENS0_4TypeENS_8weak_ptrINS_13ClientContextELb1EEE(ptr noundef nonnull align 8 dereferenceable(80) %0, i32 noundef %1, ptr noundef %2) unnamed_addr #0 align 2 personality ptr @__gxx_personality_v0 {
  %4 = alloca ptr, align 8
  %5 = alloca i32, align 4
  %6 = alloca ptr, align 8
  %7 = alloca %"class.duckdb::shared_ptr", align 8
  %8 = alloca ptr, align 8
  %9 = alloca i32, align 4
  %10 = alloca ptr, align 8
  store ptr %0, ptr %4, align 8, !tbaa !3
  store i32 %1, ptr %5, align 4, !tbaa !8
  store ptr %2, ptr %6, align 8, !tbaa !10
  %11 = load ptr, ptr %4, align 8
  store ptr getelementptr inbounds inrange(-16, 40) ({ [7 x ptr] }, ptr @_ZTVN6duckdb12BufferedDataE, i32 0, i32 0, i32 2), ptr %11, align 8, !tbaa !12
  %12 = getelementptr inbounds nuw %"class.duckdb::BufferedData", ptr %11, i32 0, i32 1
  %13 = load i32, ptr %5, align 4, !tbaa !8
  store i32 %13, ptr %12, align 8, !tbaa !14
  %14 = getelementptr inbounds nuw %"class.duckdb::BufferedData", ptr %11, i32 0, i32 2
  call void @_ZN6duckdb8weak_ptrINS_13ClientContextELb1EEC2EOS2_(ptr noundef nonnull align 8 dereferenceable(16) %14, ptr noundef nonnull align 8 dereferenceable(16) %2) #19
  %15 = getelementptr inbounds nuw %"class.duckdb::BufferedData", ptr %11, i32 0, i32 4
  call void @_ZNSt5mutexC2Ev(ptr noundef nonnull align 8 dereferenceable(40) %15) #19
  call void @llvm.lifetime.start.p0(i64 16, ptr %7) #19
  %16 = getelementptr inbounds nuw %"class.duckdb::BufferedData", ptr %11, i32 0, i32 2
  invoke void @_ZNK6duckdb8weak_ptrINS_13ClientContextELb1EE4lockEv(ptr dead_on_unwind writable sret(%"class.duckdb::shared_ptr") align 8 %7, ptr noundef nonnull align 8 dereferenceable(16) %16)
          to label %17 unwind label %26

17:                                               ; preds = %3
  call void @llvm.lifetime.start.p0(i64 8, ptr %10) #19
  %18 = invoke noundef nonnull align 8 dereferenceable(648) ptr @_ZNK6duckdb10shared_ptrINS_13ClientContextELb1EEdeEv(ptr noundef nonnull align 8 dereferenceable(16) %7)
          to label %19 unwind label %30

19:                                               ; preds = %17
  %20 = invoke noundef nonnull align 8 dereferenceable(488) ptr @_ZN6duckdb12ClientConfig9GetConfigERNS_13ClientContextE(ptr noundef nonnull align 8 dereferenceable(648) %18)
          to label %21 unwind label %30

21:                                               ; preds = %19
  store ptr %20, ptr %10, align 8, !tbaa !25
  %22 = load ptr, ptr %10, align 8, !tbaa !25
  %23 = getelementptr inbounds nuw %"struct.duckdb::ClientConfig", ptr %22, i32 0, i32 33
  %24 = load i64, ptr %23, align 8, !tbaa !27
  %25 = getelementptr inbounds nuw %"class.duckdb::BufferedData", ptr %11, i32 0, i32 3
  store i64 %24, ptr %25, align 8, !tbaa !47
  call void @llvm.lifetime.end.p0(i64 8, ptr %10) #19
  call void @_ZN6duckdb10shared_ptrINS_13ClientContextELb1EED2Ev(ptr noundef nonnull align 8 dereferenceable(16) %7) #19
  call void @llvm.lifetime.end.p0(i64 16, ptr %7) #19
  ret void

26:                                               ; preds = %3
  %27 = landingpad { ptr, i32 }
          cleanup
  %28 = extractvalue { ptr, i32 } %27, 0
  store ptr %28, ptr %8, align 8
  %29 = extractvalue { ptr, i32 } %27, 1
  store i32 %29, ptr %9, align 4
  br label %34

30:                                               ; preds = %19, %17
  %31 = landingpad { ptr, i32 }
          cleanup
  %32 = extractvalue { ptr, i32 } %31, 0
  store ptr %32, ptr %8, align 8
  %33 = extractvalue { ptr, i32 } %31, 1
  store i32 %33, ptr %9, align 4
  call void @llvm.lifetime.end.p0(i64 8, ptr %10) #19
  call void @_ZN6duckdb10shared_ptrINS_13ClientContextELb1EED2Ev(ptr noundef nonnull align 8 dereferenceable(16) %7) #19
  br label %34

34:                                               ; preds = %30, %26
  call void @llvm.lifetime.end.p0(i64 16, ptr %7) #19
  call void @_ZN6duckdb8weak_ptrINS_13ClientContextELb1EED2Ev(ptr noundef nonnull align 8 dereferenceable(16) %14) #19
  br label %35

35:                                               ; preds = %34
  %36 = load ptr, ptr %8, align 8
  %37 = load i32, ptr %9, align 4
  %38 = insertvalue { ptr, i32 } poison, ptr %36, 0
  %39 = insertvalue { ptr, i32 } %38, i32 %37, 1
  resume { ptr, i32 } %39
}