; Function Attrs: mustprogress uwtable
define void @_ZN6duckdb12BufferedDataC2ENS0_4TypeENS_8weak_ptrINS_13ClientContextELb1EEE(ptr noundef nonnull align 8 dereferenceable(80) initializes((0, 12), (16, 32), (40, 80)) %0, i32 noundef %1, ptr noundef captures(none) %2) unnamed_addr #0 align 2 personality ptr @__gxx_personality_v0 {
  %4 = alloca %"class.duckdb::shared_ptr", align 8
  store ptr getelementptr inbounds nuw inrange(-16, 40) (i8, ptr @_ZTVN6duckdb12BufferedDataE, i64 16), ptr %0, align 8, !tbaa !3
  %5 = getelementptr inbounds nuw i8, ptr %0, i64 8
  store i32 %1, ptr %5, align 8, !tbaa !6
  %6 = getelementptr inbounds nuw i8, ptr %0, i64 16
  %7 = load ptr, ptr %2, align 8, !tbaa !20
  store ptr %7, ptr %6, align 8, !tbaa !20
  %8 = getelementptr inbounds nuw i8, ptr %0, i64 24
  %9 = getelementptr inbounds nuw i8, ptr %2, i64 8
  %10 = load ptr, ptr %9, align 8, !tbaa !21
  store ptr %10, ptr %8, align 8, !tbaa !21
  tail call void @llvm.memset.p0.i64(ptr noundef nonnull align 8 dereferenceable(16) %2, i8 0, i64 16, i1 false)
  %11 = getelementptr inbounds nuw i8, ptr %0, i64 40
  tail call void @llvm.memset.p0.i64(ptr noundef nonnull align 8 dereferenceable(40) %11, i8 0, i64 40, i1 false)
  call void @llvm.lifetime.start.p0(i64 16, ptr nonnull %4) #24
  invoke void @_ZNK6duckdb8weak_ptrINS_13ClientContextELb1EE4lockEv(ptr dead_on_unwind nonnull writable sret(%"class.duckdb::shared_ptr") align 8 %4, ptr noundef nonnull align 8 dereferenceable(16) %6)
          to label %12 unwind label %43

12:                                               ; preds = %3
  %13 = invoke noundef nonnull align 8 dereferenceable(648) ptr @_ZNK6duckdb10shared_ptrINS_13ClientContextELb1EEdeEv(ptr noundef nonnull align 8 dereferenceable(16) %4)
          to label %14 unwind label %45

14:                                               ; preds = %12
  %15 = invoke noundef nonnull align 8 dereferenceable(488) ptr @_ZN6duckdb12ClientConfig9GetConfigERNS_13ClientContextE(ptr noundef nonnull align 8 dereferenceable(648) %13)
          to label %16 unwind label %45

16:                                               ; preds = %14
  %17 = getelementptr inbounds nuw i8, ptr %15, i64 240
  %18 = load i64, ptr %17, align 8, !tbaa !22
  %19 = getelementptr inbounds nuw i8, ptr %0, i64 32
  store i64 %18, ptr %19, align 8, !tbaa !42
  %20 = getelementptr inbounds nuw i8, ptr %4, i64 8
  %21 = load ptr, ptr %20, align 8, !tbaa !43
  %.not.i.i.i = icmp eq ptr %21, null
  br i1 %.not.i.i.i, label %_ZN6duckdb10shared_ptrINS_13ClientContextELb1EED2Ev.exit, label %22

22:                                               ; preds = %16
  %23 = getelementptr inbounds nuw i8, ptr %21, i64 8
  %24 = load atomic i64, ptr %23 acquire, align 8
  %25 = icmp eq i64 %24, 4294967297
  %26 = trunc i64 %24 to i32
  br i1 %25, label %27, label %35

27:                                               ; preds = %22
  store i32 0, ptr %23, align 8, !tbaa !45
  %28 = getelementptr inbounds nuw i8, ptr %21, i64 12
  store i32 0, ptr %28, align 4, !tbaa !47
  %29 = load ptr, ptr %21, align 8, !tbaa !3
  %30 = getelementptr inbounds nuw i8, ptr %29, i64 16
  %31 = load ptr, ptr %30, align 8
  call void %31(ptr noundef nonnull align 8 dereferenceable(16) %21) #24
  %32 = load ptr, ptr %21, align 8, !tbaa !3
  %33 = getelementptr inbounds nuw i8, ptr %32, i64 24
  %34 = load ptr, ptr %33, align 8
  call void %34(ptr noundef nonnull align 8 dereferenceable(16) %21) #24
  br label %_ZN6duckdb10shared_ptrINS_13ClientContextELb1EED2Ev.exit

35:                                               ; preds = %22
  %36 = load i8, ptr @__libc_single_threaded, align 1, !tbaa !48
  %.not.i.i.i.i = icmp eq i8 %36, 0
  br i1 %.not.i.i.i.i, label %39, label %37

37:                                               ; preds = %35
  %38 = add nsw i32 %26, -1
  store i32 %38, ptr %23, align 4, !tbaa !49
  br label %_ZN9__gnu_cxx27__exchange_and_add_dispatchEPii.exit.i.i.i.i

39:                                               ; preds = %35
  %40 = atomicrmw volatile add ptr %23, i32 -1 acq_rel, align 4
  br label %_ZN9__gnu_cxx27__exchange_and_add_dispatchEPii.exit.i.i.i.i

_ZN9__gnu_cxx27__exchange_and_add_dispatchEPii.exit.i.i.i.i: ; preds = %39, %37
  %.0.i.i.i.i.i = phi i32 [ %26, %37 ], [ %40, %39 ]
  %41 = icmp eq i32 %.0.i.i.i.i.i, 1
  br i1 %41, label %42, label %_ZN6duckdb10shared_ptrINS_13ClientContextELb1EED2Ev.exit, !prof !50

42:                                               ; preds = %_ZN9__gnu_cxx27__exchange_and_add_dispatchEPii.exit.i.i.i.i
  call void @_ZNSt16_Sp_counted_baseILN9__gnu_cxx12_Lock_policyE2EE24_M_release_last_use_coldEv(ptr noundef nonnull align 8 dereferenceable(16) %21) #24
  br label %_ZN6duckdb10shared_ptrINS_13ClientContextELb1EED2Ev.exit

_ZN6duckdb10shared_ptrINS_13ClientContextELb1EED2Ev.exit: ; preds = %16, %27, %_ZN9__gnu_cxx27__exchange_and_add_dispatchEPii.exit.i.i.i.i, %42
  call void @llvm.lifetime.end.p0(i64 16, ptr nonnull %4) #24
  ret void

43:                                               ; preds = %3
  %44 = landingpad { ptr, i32 }
          cleanup
  br label %47

45:                                               ; preds = %14, %12
  %46 = landingpad { ptr, i32 }
          cleanup
  call void @_ZN6duckdb10shared_ptrINS_13ClientContextELb1EED2Ev(ptr noundef nonnull align 8 dereferenceable(16) %4) #24
  br label %47

47:                                               ; preds = %45, %43
  %.pn = phi { ptr, i32 } [ %46, %45 ], [ %44, %43 ]
  call void @llvm.lifetime.end.p0(i64 16, ptr nonnull %4) #24
  call void @_ZN6duckdb8weak_ptrINS_13ClientContextELb1EED2Ev(ptr noundef nonnull align 8 dereferenceable(16) %6) #24
  resume { ptr, i32 } %.pn
}